target datalayout = "e-m:e-p270:32:32-p271:32:32-p272:64:64-i64:64-i128:128-f80:128-n8:16:32:64-S128"
target triple = "x86_64-unknown-linux-gnu"

%class.btHeightfieldTerrainShape = type { %class.btConcaveShape.base, %class.btVector3, %class.btVector3, %class.btVector3, i32, i32, float, float, float, float, float, %union.anon.0, i32, i8, i8, i8, i8, i32, %class.btVector3, [4 x i8], %class.btAlignedObjectArray, i32, i32, i32, float, ptr }
%class.btConcaveShape.base = type <{ %class.btCollisionShape, float }>
%class.btCollisionShape = type { ptr, i32, ptr, i32, i32 }
%union.anon.0 = type { ptr }
%class.btVector3 = type { [4 x float] }
%class.btAlignedObjectArray = type <{ %class.btAlignedAllocator, [3 x i8], i32, i32, [4 x i8], ptr, i8, [7 x i8] }>
%class.btAlignedAllocator = type { i8 }

; Function Attrs: mustprogress nounwind uwtable
define dso_local noundef float @_ZNK25btHeightfieldTerrainShape22getRawHeightFieldValueEii(ptr noundef nonnull align 8 dereferenceable(208) %this, i32 noundef %x, i32 noundef %y) unnamed_addr #1 align 2 {
entry:
  %this.addr = alloca ptr, align 8
  %x.addr = alloca i32, align 4
  %y.addr = alloca i32, align 4
  %val = alloca float, align 4
  %heightFieldValue = alloca i8, align 1
  %hfValue = alloca i16, align 2
  store ptr %this, ptr %this.addr, align 8
  store i32 %x, ptr %x.addr, align 4
  store i32 %y, ptr %y.addr, align 4
  %this1 = load ptr, ptr %this.addr, align 8
  store float 0.000000e+00, ptr %val, align 4
  %m_heightDataType = getelementptr inbounds %class.btHeightfieldTerrainShape, ptr %this1, i32 0, i32 12
  %0 = load i32, ptr %m_heightDataType, align 8
  switch i32 %0, label %sw.default [
    i32 0, label %sw.bb
    i32 1, label %sw.bb2
    i32 5, label %sw.bb8
    i32 3, label %sw.bb17
  ]

sw.bb:                                            ; preds = %entry
  %1 = getelementptr inbounds %class.btHeightfieldTerrainShape, ptr %this1, i32 0, i32 11
  %2 = load ptr, ptr %1, align 8
  %3 = load i32, ptr %y.addr, align 4
  %m_heightStickWidth = getelementptr inbounds %class.btHeightfieldTerrainShape, ptr %this1, i32 0, i32 4
  %4 = load i32, ptr %m_heightStickWidth, align 4
  %mul = mul nsw i32 %3, %4
  %5 = load i32, ptr %x.addr, align 4
  %add = add nsw i32 %mul, %5
  %idxprom = sext i32 %add to i64
  %arrayidx = getelementptr inbounds float, ptr %2, i64 %idxprom
  %6 = load float, ptr %arrayidx, align 4
  store float %6, ptr %val, align 4
  br label %sw.epilog

sw.bb2:                                           ; preds = %entry
  %7 = getelementptr inbounds %class.btHeightfieldTerrainShape, ptr %this1, i32 0, i32 11
  %8 = load ptr, ptr %7, align 8
  %9 = load i32, ptr %y.addr, align 4
  %m_heightStickWidth3 = getelementptr inbounds %class.btHeightfieldTerrainShape, ptr %this1, i32 0, i32 4
  %10 = load i32, ptr %m_heightStickWidth3, align 4
  %mul4 = mul nsw i32 %9, %10
  %11 = load i32, ptr %x.addr, align 4
  %add5 = add nsw i32 %mul4, %11
  %idxprom6 = sext i32 %add5 to i64
  %arrayidx7 = getelementptr inbounds double, ptr %8, i64 %idxprom6
  %12 = load double, ptr %arrayidx7, align 8
  %conv = fptrunc double %12 to float
  store float %conv, ptr %val, align 4
  br label %sw.epilog

sw.bb8:                                           ; preds = %entry
  %13 = getelementptr inbounds %class.btHeightfieldTerrainShape, ptr %this1, i32 0, i32 11
  %14 = load ptr, ptr %13, align 8
  %15 = load i32, ptr %y.addr, align 4
  %m_heightStickWidth9 = getelementptr inbounds %class.btHeightfieldTerrainShape, ptr %this1, i32 0, i32 4
  %16 = load i32, ptr %m_heightStickWidth9, align 4
  %mul10 = mul nsw i32 %15, %16
  %17 = load i32, ptr %x.addr, align 4
  %add11 = add nsw i32 %mul10, %17
  %idxprom12 = sext i32 %add11 to i64
  %arrayidx13 = getelementptr inbounds i8, ptr %14, i64 %idxprom12
  %18 = load i8, ptr %arrayidx13, align 1
  store i8 %18, ptr %heightFieldValue, align 1
  %19 = load i8, ptr %heightFieldValue, align 1
  %conv14 = zext i8 %19 to i32
  %conv15 = sitofp i32 %conv14 to float
  %m_heightScale = getelementptr inbounds %class.btHeightfieldTerrainShape, ptr %this1, i32 0, i32 10
  %20 = load float, ptr %m_heightScale, align 4
  %mul16 = fmul float %conv15, %20
  store float %mul16, ptr %val, align 4
  br label %sw.epilog

sw.bb17:                                          ; preds = %entry
  %21 = getelementptr inbounds %class.btHeightfieldTerrainShape, ptr %this1, i32 0, i32 11
  %22 = load ptr, ptr %21, align 8
  %23 = load i32, ptr %y.addr, align 4
  %m_heightStickWidth18 = getelementptr inbounds %class.btHeightfieldTerrainShape, ptr %this1, i32 0, i32 4
  %24 = load i32, ptr %m_heightStickWidth18, align 4
  %mul19 = mul nsw i32 %23, %24
  %25 = load i32, ptr %x.addr, align 4
  %add20 = add nsw i32 %mul19, %25
  %idxprom21 = sext i32 %add20 to i64
  %arrayidx22 = getelementptr inbounds i16, ptr %22, i64 %idxprom21
  %26 = load i16, ptr %arrayidx22, align 2
  store i16 %26, ptr %hfValue, align 2
  %27 = load i16, ptr %hfValue, align 2
  %conv23 = sext i16 %27 to i32
  %conv24 = sitofp i32 %conv23 to float
  %m_heightScale25 = getelementptr inbounds %class.btHeightfieldTerrainShape, ptr %this1, i32 0, i32 10
  %28 = load float, ptr %m_heightScale25, align 4
  %mul26 = fmul float %conv24, %28
  store float %mul26, ptr %val, align 4
  br label %sw.epilog

sw.default:                                       ; preds = %entry
  br label %sw.epilog

sw.epilog:                                        ; preds = %sw.default, %sw.bb17, %sw.bb8, %sw.bb2, %sw.bb
  %29 = load float, ptr %val, align 4
  ret float %29
}