; Function Attrs: mustprogress nofree norecurse nosync nounwind willreturn memory(read, inaccessiblemem: none) uwtable
define dso_local noundef float @_ZNK25btHeightfieldTerrainShape22getRawHeightFieldValueEii(ptr nocapture noundef nonnull readonly align 8 dereferenceable(208) %this, i32 noundef %x, i32 noundef %y) unnamed_addr #8 align 2 {
entry:
  %m_heightDataType = getelementptr inbounds i8, ptr %this, i64 120
  %0 = load i32, ptr %m_heightDataType, align 8
  switch i32 %0, label %sw.epilog [
    i32 0, label %sw.bb
    i32 1, label %sw.bb2
    i32 5, label %sw.bb8
    i32 3, label %sw.bb17
  ]

sw.bb:                                            ; preds = %entry
  %1 = getelementptr inbounds i8, ptr %this, i64 112
  %2 = load ptr, ptr %1, align 8
  %m_heightStickWidth = getelementptr inbounds i8, ptr %this, i64 84
  %3 = load i32, ptr %m_heightStickWidth, align 4
  %mul = mul nsw i32 %3, %y
  %add = add nsw i32 %mul, %x
  %idxprom = sext i32 %add to i64
  %arrayidx = getelementptr inbounds float, ptr %2, i64 %idxprom
  %4 = load float, ptr %arrayidx, align 4
  br label %sw.epilog

sw.bb2:                                           ; preds = %entry
  %5 = getelementptr inbounds i8, ptr %this, i64 112
  %6 = load ptr, ptr %5, align 8
  %m_heightStickWidth3 = getelementptr inbounds i8, ptr %this, i64 84
  %7 = load i32, ptr %m_heightStickWidth3, align 4
  %mul4 = mul nsw i32 %7, %y
  %add5 = add nsw i32 %mul4, %x
  %idxprom6 = sext i32 %add5 to i64
  %arrayidx7 = getelementptr inbounds double, ptr %6, i64 %idxprom6
  %8 = load double, ptr %arrayidx7, align 8
  %conv = fptrunc double %8 to float
  br label %sw.epilog

sw.bb8:                                           ; preds = %entry
  %9 = getelementptr inbounds i8, ptr %this, i64 112
  %10 = load ptr, ptr %9, align 8
  %m_heightStickWidth9 = getelementptr inbounds i8, ptr %this, i64 84
  %11 = load i32, ptr %m_heightStickWidth9, align 4
  %mul10 = mul nsw i32 %11, %y
  %add11 = add nsw i32 %mul10, %x
  %idxprom12 = sext i32 %add11 to i64
  %arrayidx13 = getelementptr inbounds i8, ptr %10, i64 %idxprom12
  %12 = load i8, ptr %arrayidx13, align 1
  %conv15 = uitofp i8 %12 to float
  %m_heightScale = getelementptr inbounds i8, ptr %this, i64 108
  %13 = load float, ptr %m_heightScale, align 4
  %mul16 = fmul float %13, %conv15
  br label %sw.epilog

sw.bb17:                                          ; preds = %entry
  %14 = getelementptr inbounds i8, ptr %this, i64 112
  %15 = load ptr, ptr %14, align 8
  %m_heightStickWidth18 = getelementptr inbounds i8, ptr %this, i64 84
  %16 = load i32, ptr %m_heightStickWidth18, align 4
  %mul19 = mul nsw i32 %16, %y
  %add20 = add nsw i32 %mul19, %x
  %idxprom21 = sext i32 %add20 to i64
  %arrayidx22 = getelementptr inbounds i16, ptr %15, i64 %idxprom21
  %17 = load i16, ptr %arrayidx22, align 2
  %conv24 = sitofp i16 %17 to float
  %m_heightScale25 = getelementptr inbounds i8, ptr %this, i64 108
  %18 = load float, ptr %m_heightScale25, align 4
  %mul26 = fmul float %18, %conv24
  br label %sw.epilog

sw.epilog:                                        ; preds = %entry, %sw.bb17, %sw.bb8, %sw.bb2, %sw.bb
  %val.0 = phi float [ 0.000000e+00, %entry ], [ %mul26, %sw.bb17 ], [ %mul16, %sw.bb8 ], [ %conv, %sw.bb2 ], [ %4, %sw.bb ]
  ret float %val.0
}